; Function Attrs: nounwind sspstrong uwtable
define internal noundef i64 @validate_utc_offset(i64 noundef returned %0) #1 {
  %2 = and i64 %0, 1
  %or.cond.not.i = icmp eq i64 %2, 0
  br i1 %or.cond.not.i, label %5, label %3

3:                                                ; preds = %1
  %4 = icmp slt i64 %0, -172799
  br i1 %4, label %cmp.exit.thread, label %cmp.exit.thread10

5:                                                ; preds = %1
  %6 = icmp eq i64 %0, 0
  %7 = and i64 %0, 6
  %8 = icmp ne i64 %7, 0
  %9 = or i1 %6, %8
  br i1 %9, label %cmp.exit, label %rbimpl_RB_TYPE_P_fastpath.exit.i

rbimpl_RB_TYPE_P_fastpath.exit.i:                 ; preds = %5
  %10 = inttoptr i64 %0 to ptr
  %11 = load i64, ptr %10, align 8, !tbaa !15
  %12 = and i64 %11, 31
  %13 = icmp eq i64 %12, 10
  br i1 %13, label %cmp.exit.thread15, label %cmp.exit

cmp.exit:                                         ; preds = %5, %rbimpl_RB_TYPE_P_fastpath.exit.i
  %14 = tail call i64 (i64, i64, i32, ...) @rb_funcall(i64 noundef %0, i64 noundef 135, i32 noundef 1, i64 noundef -172799) #21
  %15 = tail call i32 @rb_cmpint(i64 noundef %14, i64 noundef %0, i64 noundef -172799) #21
  %16 = icmp slt i32 %15, 1
  br i1 %16, label %cmp.exit.thread, label %23

cmp.exit.thread15:                                ; preds = %rbimpl_RB_TYPE_P_fastpath.exit.i
  %17 = tail call i64 @rb_big_cmp(i64 noundef %0, i64 noundef -172799) #21
  %18 = tail call i64 @rb_fix2int(i64 noundef %17) #21
  %19 = trunc i64 %18 to i32
  %20 = icmp slt i32 %19, 1
  br i1 %20, label %cmp.exit.thread, label %rbimpl_RB_TYPE_P_fastpath.exit.i6

cmp.exit.thread10:                                ; preds = %3
  %21 = icmp ne i64 %0, -172799
  %22 = icmp slt i64 %0, 172801
  %or.cond = and i1 %21, %22
  br i1 %or.cond, label %cmp.exit8.thread13, label %cmp.exit.thread

23:                                               ; preds = %cmp.exit
  br i1 %9, label %rbimpl_RB_TYPE_P_fastpath.exit.thread.i7, label %rbimpl_RB_TYPE_P_fastpath.exit.i6

rbimpl_RB_TYPE_P_fastpath.exit.i6:                ; preds = %cmp.exit.thread15, %23
  %24 = inttoptr i64 %0 to ptr
  %25 = load i64, ptr %24, align 8, !tbaa !15
  %26 = and i64 %25, 31
  %27 = icmp eq i64 %26, 10
  br i1 %27, label %28, label %rbimpl_RB_TYPE_P_fastpath.exit.thread.i7

28:                                               ; preds = %rbimpl_RB_TYPE_P_fastpath.exit.i6
  %29 = tail call i64 @rb_big_cmp(i64 noundef %0, i64 noundef 172801) #21
  %30 = tail call i64 @rb_fix2int(i64 noundef %29) #21
  %31 = trunc i64 %30 to i32
  br label %cmp.exit8

rbimpl_RB_TYPE_P_fastpath.exit.thread.i7:         ; preds = %rbimpl_RB_TYPE_P_fastpath.exit.i6, %23
  %32 = tail call i64 (i64, i64, i32, ...) @rb_funcall(i64 noundef %0, i64 noundef 135, i32 noundef 1, i64 noundef 172801) #21
  %33 = tail call i32 @rb_cmpint(i64 noundef %32, i64 noundef %0, i64 noundef 172801) #21
  br label %cmp.exit8

cmp.exit8:                                        ; preds = %28, %rbimpl_RB_TYPE_P_fastpath.exit.thread.i7
  %.0.i5 = phi i32 [ %31, %28 ], [ %33, %rbimpl_RB_TYPE_P_fastpath.exit.thread.i7 ]
  %34 = icmp sgt i32 %.0.i5, -1
  br i1 %34, label %cmp.exit.thread, label %cmp.exit8.thread13

cmp.exit.thread:                                  ; preds = %cmp.exit.thread15, %3, %cmp.exit.thread10, %cmp.exit8, %cmp.exit
  %35 = load i64, ptr @rb_eArgError, align 8, !tbaa !11
  tail call void (i64, ptr, ...) @rb_raise(i64 noundef %35, ptr noundef nonnull @.str.2) #22
  unreachable

cmp.exit8.thread13:                               ; preds = %cmp.exit.thread10, %cmp.exit8
  ret i64 %0
}